; Function Attrs: nounwind uwtable
define void @Aig_NodeUnionLists(ptr noundef readonly captures(none) %0, ptr noundef readonly captures(none) %1, ptr noundef captures(none) %2) local_unnamed_addr #1 {
  %4 = getelementptr inbounds nuw i8, ptr %2, i64 8
  %5 = getelementptr inbounds nuw i8, ptr %0, i64 8
  %6 = load ptr, ptr %5, align 8, !tbaa !24
  %7 = getelementptr inbounds nuw i8, ptr %1, i64 8
  %8 = load ptr, ptr %7, align 8, !tbaa !24
  %9 = getelementptr inbounds nuw i8, ptr %0, i64 4
  %10 = load i32, ptr %9, align 4, !tbaa !22
  %11 = sext i32 %10 to i64
  %12 = getelementptr inbounds ptr, ptr %6, i64 %11
  %13 = getelementptr inbounds nuw i8, ptr %1, i64 4
  %14 = load i32, ptr %13, align 4, !tbaa !22
  %15 = sext i32 %14 to i64
  %16 = getelementptr inbounds ptr, ptr %8, i64 %15
  %17 = add nsw i32 %14, %10
  %18 = load i32, ptr %2, align 8, !tbaa !42
  %.not.i = icmp slt i32 %18, %17
  %.pre = load ptr, ptr %4, align 8, !tbaa !24
  br i1 %.not.i, label %19, label %Vec_PtrGrow.exit

19:                                               ; preds = %3
  %.not9.i = icmp eq ptr %.pre, null
  %20 = sext i32 %17 to i64
  %21 = shl nsw i64 %20, 3
  br i1 %.not9.i, label %24, label %22

22:                                               ; preds = %19
  %23 = tail call ptr @realloc(ptr noundef nonnull %.pre, i64 noundef %21) #27
  br label %26

24:                                               ; preds = %19
  %25 = tail call noalias ptr @malloc(i64 noundef %21) #28
  br label %26

26:                                               ; preds = %24, %22
  %27 = phi ptr [ %23, %22 ], [ %25, %24 ]
  store ptr %27, ptr %4, align 8, !tbaa !24
  store i32 %17, ptr %2, align 8, !tbaa !42
  br label %Vec_PtrGrow.exit

Vec_PtrGrow.exit:                                 ; preds = %3, %26
  %28 = phi ptr [ %.pre, %3 ], [ %27, %26 ]
  %29 = icmp sgt i32 %10, 0
  %30 = icmp sgt i32 %14, 0
  %31 = and i1 %29, %30
  br i1 %31, label %.lr.ph, label %.preheader46

.preheader46:                                     ; preds = %49, %Vec_PtrGrow.exit
  %.040.lcssa = phi ptr [ %8, %Vec_PtrGrow.exit ], [ %.141, %49 ]
  %.037.lcssa = phi ptr [ %6, %Vec_PtrGrow.exit ], [ %.138, %49 ]
  %.0.lcssa = phi ptr [ %28, %Vec_PtrGrow.exit ], [ %.1, %49 ]
  %32 = icmp ult ptr %.037.lcssa, %12
  br i1 %32, label %.lr.ph54, label %.preheader

.lr.ph:                                           ; preds = %Vec_PtrGrow.exit, %49
  %.049 = phi ptr [ %.1, %49 ], [ %28, %Vec_PtrGrow.exit ]
  %.03748 = phi ptr [ %.138, %49 ], [ %6, %Vec_PtrGrow.exit ]
  %.04047 = phi ptr [ %.141, %49 ], [ %8, %Vec_PtrGrow.exit ]
  %33 = load ptr, ptr %.03748, align 8, !tbaa !43
  %34 = getelementptr inbounds nuw i8, ptr %33, i64 36
  %35 = load i32, ptr %34, align 4, !tbaa !44
  %36 = load ptr, ptr %.04047, align 8, !tbaa !43
  %37 = getelementptr inbounds nuw i8, ptr %36, i64 36
  %38 = load i32, ptr %37, align 4, !tbaa !44
  %39 = icmp eq i32 %35, %38
  br i1 %39, label %40, label %43

40:                                               ; preds = %.lr.ph
  %41 = getelementptr inbounds nuw i8, ptr %.03748, i64 8
  store ptr %33, ptr %.049, align 8, !tbaa !43
  %42 = getelementptr inbounds nuw i8, ptr %.04047, i64 8
  br label %49

43:                                               ; preds = %.lr.ph
  %44 = icmp slt i32 %35, %38
  br i1 %44, label %45, label %47

45:                                               ; preds = %43
  %46 = getelementptr inbounds nuw i8, ptr %.03748, i64 8
  store ptr %33, ptr %.049, align 8, !tbaa !43
  br label %49

47:                                               ; preds = %43
  %48 = getelementptr inbounds nuw i8, ptr %.04047, i64 8
  store ptr %36, ptr %.049, align 8, !tbaa !43
  br label %49

49:                                               ; preds = %45, %47, %40
  %.141 = phi ptr [ %42, %40 ], [ %.04047, %45 ], [ %48, %47 ]
  %.138 = phi ptr [ %41, %40 ], [ %46, %45 ], [ %.03748, %47 ]
  %.1 = getelementptr inbounds nuw i8, ptr %.049, i64 8
  %50 = icmp ult ptr %.138, %12
  %51 = icmp ult ptr %.141, %16
  %52 = select i1 %50, i1 %51, i1 false
  br i1 %52, label %.lr.ph, label %.preheader46, !llvm.loop !95

.preheader:                                       ; preds = %.lr.ph54, %.preheader46
  %.2.lcssa = phi ptr [ %.0.lcssa, %.preheader46 ], [ %56, %.lr.ph54 ]
  %53 = icmp ult ptr %.040.lcssa, %16
  br i1 %53, label %.lr.ph58, label %._crit_edge

.lr.ph54:                                         ; preds = %.preheader46, %.lr.ph54
  %.253 = phi ptr [ %56, %.lr.ph54 ], [ %.0.lcssa, %.preheader46 ]
  %.23952 = phi ptr [ %54, %.lr.ph54 ], [ %.037.lcssa, %.preheader46 ]
  %54 = getelementptr inbounds nuw i8, ptr %.23952, i64 8
  %55 = load ptr, ptr %.23952, align 8, !tbaa !43
  %56 = getelementptr inbounds nuw i8, ptr %.253, i64 8
  store ptr %55, ptr %.253, align 8, !tbaa !43
  %57 = icmp ult ptr %54, %12
  br i1 %57, label %.lr.ph54, label %.preheader, !llvm.loop !96

.lr.ph58:                                         ; preds = %.preheader, %.lr.ph58
  %.357 = phi ptr [ %60, %.lr.ph58 ], [ %.2.lcssa, %.preheader ]
  %.24256 = phi ptr [ %58, %.lr.ph58 ], [ %.040.lcssa, %.preheader ]
  %58 = getelementptr inbounds nuw i8, ptr %.24256, i64 8
  %59 = load ptr, ptr %.24256, align 8, !tbaa !43
  %60 = getelementptr inbounds nuw i8, ptr %.357, i64 8
  store ptr %59, ptr %.357, align 8, !tbaa !43
  %61 = icmp ult ptr %58, %16
  br i1 %61, label %.lr.ph58, label %._crit_edge, !llvm.loop !97

._crit_edge:                                      ; preds = %.lr.ph58, %.preheader
  %.3.lcssa = phi ptr [ %.2.lcssa, %.preheader ], [ %60, %.lr.ph58 ]
  %62 = ptrtoint ptr %.3.lcssa to i64
  %63 = ptrtoint ptr %28 to i64
  %64 = sub i64 %62, %63
  %65 = lshr exact i64 %64, 3
  %66 = trunc i64 %65 to i32
  %67 = getelementptr inbounds nuw i8, ptr %2, i64 4
  store i32 %66, ptr %67, align 4, !tbaa !22
  ret void
}